; Function Attrs: mustprogress nofree norecurse nosync nounwind willreturn memory(argmem: read) uwtable
define range(i32 0, 2) i32 @ZSTD_isSkippableFrame(ptr noundef readonly captures(none) %0, i64 noundef %1) local_unnamed_addr #8 {
  %3 = icmp ult i64 %1, 4
  br i1 %3, label %6, label %4

4:                                                ; preds = %2
  %.val = load i32, ptr %0, align 1, !tbaa !47
  %5 = and i32 %.val, -16
  %.not = icmp eq i32 %5, 407710288
  %spec.select = zext i1 %.not to i32
  br label %6

6:                                                ; preds = %4, %2
  %.04 = phi i32 [ 0, %2 ], [ %spec.select, %4 ]
  ret i32 %.04
}